; Function Attrs: mustprogress nounwind uwtable
define hidden void @_ZN17ThreadHeapSampler16pick_next_sampleEm(ptr nocapture noundef nonnull writeonly align 8 dereferenceable(8) %0, i64 noundef %1) local_unnamed_addr #2 align 2 {
  %3 = load volatile i32, ptr @_ZN17ThreadHeapSampler18_sampling_intervalE, align 4
  tail call void asm sideeffect "", "~{memory},~{dirflag},~{fpsr},~{flags}"() #5, !srcloc !6
  %4 = icmp eq i32 %3, 0
  br i1 %4, label %31, label %5

5:                                                ; preds = %2
  %6 = load i64, ptr @_ZN17ThreadHeapSampler4_rndE, align 8
  %7 = mul i64 %6, 25214903917
  %8 = add i64 %7, 11
  %9 = and i64 %8, 281474976710655
  store i64 %9, ptr @_ZN17ThreadHeapSampler4_rndE, align 8
  %10 = lshr i64 %9, 22
  %11 = trunc nuw nsw i64 %10 to i32
  %12 = add nuw nsw i32 %11, 1
  %13 = uitofp nneg i32 %12 to double
  %14 = bitcast double %13 to i64
  %15 = lshr i64 %14, 42
  %16 = and i64 %15, 1023
  %sum.shift.i.i = lshr i64 %14, 52
  %17 = trunc nuw nsw i64 %sum.shift.i.i to i32
  %18 = add nsw i32 %17, -1023
  %19 = sitofp i32 %18 to double
  %20 = getelementptr inbounds [1024 x double], ptr @_ZL9log_table, i64 0, i64 %16
  %21 = load double, ptr %20, align 8
  %22 = fadd double %21, %19
  %23 = fadd double %22, -2.600000e+01
  %24 = fcmp ogt double %23, 0.000000e+00
  %25 = select i1 %24, double 0.000000e+00, double %23
  %26 = load volatile i32, ptr @_ZN17ThreadHeapSampler18_sampling_intervalE, align 4
  tail call void asm sideeffect "", "~{memory},~{dirflag},~{fpsr},~{flags}"() #5, !srcloc !6
  %27 = sitofp i32 %26 to double
  %28 = fmul double %27, 0xBFE62E42FEFA39EF
  %29 = tail call double @llvm.fmuladd.f64(double %25, double %28, double 1.000000e+00)
  %30 = fptoui double %29 to i64
  br label %31

31:                                               ; preds = %2, %5
  %storemerge = phi i64 [ %30, %5 ], [ 0, %2 ]
  store i64 %storemerge, ptr %0, align 8
  ret void
}